; ModuleID = '56/2801.c'
source_filename = "56/2801.c"
target datalayout = "e-m:e-p270:32:32-p271:32:32-p272:64:64-i64:64-f80:128-n8:16:32:64-S128"
target triple = "x86_64-pc-linux-gnu"

@.str = private unnamed_addr constant [3 x i8] c"%d\00", align 1

; Function Attrs: noinline nounwind uwtable
define dso_local void @main() #0 {
  %1 = alloca i32, align 4
  %2 = alloca [4 x i32], align 16
  %3 = alloca i32, align 4
  %4 = call i32 (i8*, ...) @__isoc99_scanf(i8* getelementptr inbounds ([3 x i8], [3 x i8]* @.str, i64 0, i64 0), i32* %1)
  %5 = load i32, i32* %1, align 4
  %6 = sdiv i32 %5, 10000
  %7 = getelementptr inbounds [4 x i32], [4 x i32]* %2, i64 0, i64 0
  store i32 %6, i32* %7, align 16
  %8 = load i32, i32* %1, align 4
  %9 = getelementptr inbounds [4 x i32], [4 x i32]* %2, i64 0, i64 0
  %10 = load i32, i32* %9, align 16
  %11 = mul nsw i32 %10, 10000
  %12 = sub nsw i32 %8, %11
  %13 = sdiv i32 %12, 1000
  %14 = getelementptr inbounds [4 x i32], [4 x i32]* %2, i64 0, i64 1
  store i32 %13, i32* %14, align 4
  %15 = load i32, i32* %1, align 4
  %16 = getelementptr inbounds [4 x i32], [4 x i32]* %2, i64 0, i64 0
  %17 = load i32, i32* %16, align 16
  %18 = mul nsw i32 %17, 10000
  %19 = sub nsw i32 %15, %18
  %20 = getelementptr inbounds [4 x i32], [4 x i32]* %2, i64 0, i64 1
  %21 = load i32, i32* %20, align 4
  %22 = mul nsw i32 %21, 1000
  %23 = sub nsw i32 %19, %22
  %24 = sdiv i32 %23, 100
  %25 = getelementptr inbounds [4 x i32], [4 x i32]* %2, i64 0, i64 2
  store i32 %24, i32* %25, align 8
  %26 = load i32, i32* %1, align 4
  %27 = getelementptr inbounds [4 x i32], [4 x i32]* %2, i64 0, i64 0
  %28 = load i32, i32* %27, align 16
  %29 = mul nsw i32 %28, 10000
  %30 = sub nsw i32 %26, %29
  %31 = getelementptr inbounds [4 x i32], [4 x i32]* %2, i64 0, i64 1
  %32 = load i32, i32* %31, align 4
  %33 = mul nsw i32 %32, 1000
  %34 = sub nsw i32 %30, %33
  %35 = getelementptr inbounds [4 x i32], [4 x i32]* %2, i64 0, i64 2
  %36 = load i32, i32* %35, align 8
  %37 = mul nsw i32 %36, 100
  %38 = sub nsw i32 %34, %37
  %39 = sdiv i32 %38, 10
  %40 = getelementptr inbounds [4 x i32], [4 x i32]* %2, i64 0, i64 3
  store i32 %39, i32* %40, align 4
  %41 = load i32, i32* %1, align 4
  %42 = getelementptr inbounds [4 x i32], [4 x i32]* %2, i64 0, i64 0
  %43 = load i32, i32* %42, align 16
  %44 = mul nsw i32 %43, 10000
  %45 = sub nsw i32 %41, %44
  %46 = getelementptr inbounds [4 x i32], [4 x i32]* %2, i64 0, i64 1
  %47 = load i32, i32* %46, align 4
  %48 = mul nsw i32 %47, 1000
  %49 = sub nsw i32 %45, %48
  %50 = getelementptr inbounds [4 x i32], [4 x i32]* %2, i64 0, i64 2
  %51 = load i32, i32* %50, align 8
  %52 = mul nsw i32 %51, 100
  %53 = sub nsw i32 %49, %52
  %54 = getelementptr inbounds [4 x i32], [4 x i32]* %2, i64 0, i64 3
  %55 = load i32, i32* %54, align 4
  %56 = mul nsw i32 %55, 10
  %57 = sub nsw i32 %53, %56
  %58 = getelementptr inbounds [4 x i32], [4 x i32]* %2, i64 0, i64 4
  store i32 %57, i32* %58, align 16
  store i32 4, i32* %3, align 4
  br label %59

59:                                               ; preds = %76, %0
  %60 = load i32, i32* %3, align 4
  %61 = sext i32 %60 to i64
  %62 = getelementptr inbounds [4 x i32], [4 x i32]* %2, i64 0, i64 %61
  %63 = load i32, i32* %62, align 4
  %64 = icmp ne i32 %63, 0
  br i1 %64, label %65, label %68

65:                                               ; preds = %59
  %66 = load i32, i32* %3, align 4
  %67 = icmp sge i32 %66, 0
  br label %68

68:                                               ; preds = %65, %59
  %69 = phi i1 [ false, %59 ], [ %67, %65 ]
  br i1 %69, label %70, label %79

70:                                               ; preds = %68
  %71 = load i32, i32* %3, align 4
  %72 = sext i32 %71 to i64
  %73 = getelementptr inbounds [4 x i32], [4 x i32]* %2, i64 0, i64 %72
  %74 = load i32, i32* %73, align 4
  %75 = call i32 (i8*, ...) @printf(i8* getelementptr inbounds ([3 x i8], [3 x i8]* @.str, i64 0, i64 0), i32 %74)
  br label %76

76:                                               ; preds = %70
  %77 = load i32, i32* %3, align 4
  %78 = add nsw i32 %77, -1
  store i32 %78, i32* %3, align 4
  br label %59

79:                                               ; preds = %68
  ret void
}

declare dso_local i32 @__isoc99_scanf(i8*, ...) #1

declare dso_local i32 @printf(i8*, ...) #1


!llvm.module.flags = !{!0}
!llvm.ident = !{!1}

!0 = !{i32 1, !"wchar_size", i32 4}
!1 = !{!"clang version 10.0.0-4ubuntu1 "}
