; ModuleID = 'source-C-CXX/55/2801.c'
source_filename = "source-C-CXX/55/2801.c"
target datalayout = "e-m:e-p270:32:32-p271:32:32-p272:64:64-i64:64-f80:128-n8:16:32:64-S128"
target triple = "x86_64-pc-linux-gnu"

@.str = private unnamed_addr constant [3 x i8] c"%d\00", align 1

; Function Attrs: nofree nounwind sspstrong uwtable
define dso_local void @main() local_unnamed_addr #0 {
  %1 = alloca i32, align 4
  %2 = alloca [4 x i32], align 16
  %3 = bitcast i32* %1 to i8*
  call void @llvm.lifetime.start.p0i8(i64 4, i8* nonnull %3) #3
  %4 = bitcast [4 x i32]* %2 to i8*
  call void @llvm.lifetime.start.p0i8(i64 16, i8* nonnull %4) #3
  %5 = call i32 (i8*, ...) @__isoc99_scanf(i8* getelementptr inbounds ([3 x i8], [3 x i8]* @.str, i64 0, i64 0), i32* nonnull %1)
  %6 = load i32, i32* %1, align 4, !tbaa !5
  %7 = sdiv i32 %6, 10000
  %8 = getelementptr inbounds [4 x i32], [4 x i32]* %2, i64 0, i64 0
  store i32 %7, i32* %8, align 16, !tbaa !5
  %9 = mul nsw i32 %7, -10000
  %10 = add i32 %9, %6
  %11 = sdiv i32 %10, 1000
  %12 = getelementptr inbounds [4 x i32], [4 x i32]* %2, i64 0, i64 1
  store i32 %11, i32* %12, align 4, !tbaa !5
  %13 = mul nsw i32 %11, -1000
  %14 = add i32 %13, %10
  %15 = sdiv i32 %14, 100
  %16 = getelementptr inbounds [4 x i32], [4 x i32]* %2, i64 0, i64 2
  store i32 %15, i32* %16, align 8, !tbaa !5
  %17 = mul nsw i32 %15, -100
  %18 = add i32 %17, %14
  %19 = sdiv i32 %18, 10
  %20 = getelementptr inbounds [4 x i32], [4 x i32]* %2, i64 0, i64 3
  store i32 %19, i32* %20, align 4, !tbaa !5
  %21 = mul nsw i32 %19, -10
  %22 = add i32 %21, %18
  %23 = getelementptr inbounds [4 x i32], [4 x i32]* %2, i64 0, i64 4
  store i32 %22, i32* %23, align 16, !tbaa !5
  %24 = icmp eq i32 %22, 0
  br i1 %24, label %35, label %25

25:                                               ; preds = %0, %25
  %26 = phi i64 [ %29, %25 ], [ 4, %0 ]
  %27 = phi i32 [ %31, %25 ], [ %22, %0 ]
  %28 = call i32 (i8*, ...) @printf(i8* nonnull dereferenceable(1) getelementptr inbounds ([3 x i8], [3 x i8]* @.str, i64 0, i64 0), i32 %27)
  %29 = add nsw i64 %26, -1
  %30 = getelementptr inbounds [4 x i32], [4 x i32]* %2, i64 0, i64 %29
  %31 = load i32, i32* %30, align 4, !tbaa !5
  %32 = icmp ne i32 %31, 0
  %33 = icmp ne i64 %26, 0
  %34 = select i1 %32, i1 %33, i1 false
  br i1 %34, label %25, label %35, !llvm.loop !9

35:                                               ; preds = %25, %0
  call void @llvm.lifetime.end.p0i8(i64 16, i8* nonnull %4) #3
  call void @llvm.lifetime.end.p0i8(i64 4, i8* nonnull %3) #3
  ret void
}

; Function Attrs: argmemonly mustprogress nofree nosync nounwind willreturn
declare void @llvm.lifetime.start.p0i8(i64 immarg, i8* nocapture) #1

; Function Attrs: nofree nounwind
declare noundef i32 @__isoc99_scanf(i8* nocapture noundef readonly, ...) local_unnamed_addr #2

; Function Attrs: nofree nounwind
declare noundef i32 @printf(i8* nocapture noundef readonly, ...) local_unnamed_addr #2

; Function Attrs: argmemonly mustprogress nofree nosync nounwind willreturn
declare void @llvm.lifetime.end.p0i8(i64 immarg, i8* nocapture) #1


!llvm.module.flags = !{!0, !1, !2, !3}
!llvm.ident = !{!4}

!0 = !{i32 1, !"wchar_size", i32 4}
!1 = !{i32 7, !"PIC Level", i32 2}
!2 = !{i32 7, !"PIE Level", i32 2}
!3 = !{i32 7, !"uwtable", i32 1}
!4 = !{!"clang version 13.0.0"}
!5 = !{!6, !6, i64 0}
!6 = !{!"int", !7, i64 0}
!7 = !{!"omnipotent char", !8, i64 0}
!8 = !{!"Simple C/C++ TBAA"}
!9 = distinct !{!9, !10}
!10 = !{!"llvm.loop.mustprogress"}
